; Function Attrs: mustprogress uwtable
define void @_ZN5arrow8internal8FileSeekEili(ptr dead_on_unwind noalias writable sret(%"class.arrow::Status") align 8 %0, i32 noundef %1, i64 noundef %2, i32 noundef %3) local_unnamed_addr #3 personality ptr @__gxx_personality_v0 {
  %5 = alloca %"class.arrow::Status", align 8
  %6 = alloca %"class.arrow::Result.38", align 8
  call void @llvm.lifetime.start.p0(i64 16, ptr nonnull %6) #38
  %7 = tail call i64 @lseek64(i32 noundef %1, i64 noundef %2, i32 noundef %3) #38, !noalias !478
  %8 = icmp eq i64 %7, -1
  br i1 %8, label %9, label %.thread

9:                                                ; preds = %4
  call void @llvm.lifetime.start.p0(i64 8, ptr nonnull %5) #38, !noalias !478
  call void @_ZN5arrow6Status8FromArgsIJRA13_KcEEES0_NS_10StatusCodeEDpOT_(ptr dead_on_unwind nonnull writable sret(%"class.arrow::Status") align 8 %5, i8 noundef signext 5, ptr noundef nonnull align 1 dereferenceable(13) @.str.50), !noalias !478
  call void @_ZN5arrow6ResultIlEC2ERKNS_6StatusE(ptr noundef nonnull align 8 dereferenceable(16) %6, ptr noundef nonnull align 8 dereferenceable(8) %5) #38
  %10 = load ptr, ptr %5, align 8, !tbaa !89, !noalias !478
  %.not.i.i = icmp eq ptr %10, null
  br i1 %.not.i.i, label %_ZN5arrow8internalL14lseek64_compatEili.exit, label %11, !prof !92

11:                                               ; preds = %9
  %12 = getelementptr inbounds nuw i8, ptr %10, i64 1
  %13 = load i8, ptr %12, align 1, !tbaa !93, !range !98, !noundef !99
  %14 = trunc nuw i8 %13 to i1
  br i1 %14, label %_ZN5arrow8internalL14lseek64_compatEili.exit, label %15

15:                                               ; preds = %11
  call void @_ZN5arrow6Status11DeleteStateEv(ptr noundef nonnull align 8 dereferenceable(8) %5) #38
  br label %_ZN5arrow8internalL14lseek64_compatEili.exit

_ZN5arrow8internalL14lseek64_compatEili.exit:     ; preds = %9, %11, %15
  call void @llvm.lifetime.end.p0(i64 8, ptr nonnull %5) #38, !noalias !478
  %.pr = load ptr, ptr %6, align 8, !tbaa !89
  call void @llvm.experimental.noalias.scope.decl(metadata !481)
  %16 = icmp eq ptr %.pr, null
  br i1 %16, label %.thread, label %17, !prof !100

17:                                               ; preds = %_ZN5arrow8internalL14lseek64_compatEili.exit
  invoke void @_ZN5arrow8internal19UninitializedResultEv(ptr dead_on_unwind writable sret(%"class.arrow::Status") align 8 %0)
          to label %18 unwind label %26

.thread:                                          ; preds = %4, %_ZN5arrow8internalL14lseek64_compatEili.exit
  store ptr null, ptr %0, align 8, !tbaa !89, !alias.scope !481
  br label %_ZN5arrow6ResultIlED2Ev.exit

18:                                               ; preds = %17
  %19 = load ptr, ptr %6, align 8, !tbaa !89, !noalias !481
  %20 = load ptr, ptr %0, align 8, !tbaa !89, !alias.scope !481
  store ptr %20, ptr %6, align 8, !tbaa !89, !noalias !481
  store ptr %19, ptr %0, align 8, !tbaa !89, !alias.scope !481
  %.not.i.i4 = icmp eq ptr %20, null
  br i1 %.not.i.i4, label %_ZN5arrow6ResultIlED2Ev.exit, label %21, !prof !121

21:                                               ; preds = %18
  %22 = getelementptr inbounds nuw i8, ptr %20, i64 1
  %23 = load i8, ptr %22, align 1, !tbaa !93, !range !98, !noundef !99
  %24 = trunc nuw i8 %23 to i1
  br i1 %24, label %_ZN5arrow6ResultIlED2Ev.exit, label %25

25:                                               ; preds = %21
  call void @_ZN5arrow6Status11DeleteStateEv(ptr noundef nonnull align 8 dereferenceable(16) %6) #38
  br label %_ZN5arrow6ResultIlED2Ev.exit

_ZN5arrow6ResultIlED2Ev.exit:                     ; preds = %.thread, %18, %21, %25
  call void @llvm.lifetime.end.p0(i64 16, ptr nonnull %6) #38
  ret void

26:                                               ; preds = %17
  %27 = landingpad { ptr, i32 }
          cleanup
  %28 = load ptr, ptr %6, align 8, !tbaa !89
  %.not.i.i6 = icmp eq ptr %28, null
  br i1 %.not.i.i6, label %_ZN5arrow6ResultIlED2Ev.exit8, label %29, !prof !92

29:                                               ; preds = %26
  %30 = getelementptr inbounds nuw i8, ptr %28, i64 1
  %31 = load i8, ptr %30, align 1, !tbaa !93, !range !98, !noundef !99
  %32 = trunc nuw i8 %31 to i1
  br i1 %32, label %_ZN5arrow6ResultIlED2Ev.exit8, label %33

33:                                               ; preds = %29
  call void @_ZN5arrow6Status11DeleteStateEv(ptr noundef nonnull align 8 dereferenceable(16) %6) #38
  br label %_ZN5arrow6ResultIlED2Ev.exit8

_ZN5arrow6ResultIlED2Ev.exit8:                    ; preds = %26, %29, %33
  call void @llvm.lifetime.end.p0(i64 16, ptr nonnull %6) #38
  resume { ptr, i32 } %27
}